; Function Attrs: nounwind uwtable
define range(i32 -2, 2) i32 @arkLsDQJtimes(ptr noundef %0, ptr noundef %1, double noundef %2, ptr noundef %3, ptr noundef %4, ptr noundef %5, ptr noundef %6) #0 {
  %8 = icmp eq ptr %5, null
  br i1 %8, label %9, label %10

9:                                                ; preds = %7
  tail call void (ptr, i32, i32, ptr, ptr, ptr, ...) @arkProcessError(ptr noundef null, i32 noundef -1, i32 noundef 4050, ptr noundef nonnull @__func__.arkLsDQJtimes, ptr noundef nonnull @.str, ptr noundef nonnull @.str.63) #13
  br label %arkLs_AccessARKODELMem.exit.thread

10:                                               ; preds = %7
  %11 = getelementptr inbounds nuw i8, ptr %5, i64 320
  %12 = load ptr, ptr %11, align 8, !tbaa !33
  %13 = tail call ptr %12(ptr noundef nonnull %5) #13
  %14 = icmp eq ptr %13, null
  br i1 %14, label %15, label %arkLs_AccessARKODELMem.exit

15:                                               ; preds = %10
  tail call void (ptr, i32, i32, ptr, ptr, ptr, ...) @arkProcessError(ptr noundef nonnull %5, i32 noundef -2, i32 noundef 4058, ptr noundef nonnull @__func__.arkLsDQJtimes, ptr noundef nonnull @.str, ptr noundef nonnull @.str.64) #13
  br label %arkLs_AccessARKODELMem.exit.thread

arkLs_AccessARKODELMem.exit:                      ; preds = %10
  %16 = getelementptr inbounds nuw i8, ptr %5, i64 560
  %17 = load ptr, ptr %16, align 8, !tbaa !73
  %18 = tail call double @N_VWrmsNorm(ptr noundef %0, ptr noundef %17) #13
  %19 = fdiv double 1.000000e+00, %18
  %20 = getelementptr inbounds nuw i8, ptr %13, i64 264
  %21 = getelementptr inbounds nuw i8, ptr %5, i64 16
  %22 = getelementptr inbounds nuw i8, ptr %13, i64 136
  br label %23

23:                                               ; preds = %arkLs_AccessARKODELMem.exit, %32
  %.02345 = phi i32 [ 0, %arkLs_AccessARKODELMem.exit ], [ %34, %32 ]
  %.02544 = phi double [ %19, %arkLs_AccessARKODELMem.exit ], [ %33, %32 ]
  tail call void @N_VLinearSum(double noundef %.02544, ptr noundef %0, double noundef 1.000000e+00, ptr noundef %3, ptr noundef %6) #13
  %24 = load ptr, ptr %20, align 8, !tbaa !49
  %25 = load ptr, ptr %21, align 8, !tbaa !53
  %26 = tail call i32 %24(double noundef %2, ptr noundef %6, ptr noundef %1, ptr noundef %25) #13
  %27 = load i64, ptr %22, align 8, !tbaa !74
  %28 = add nsw i64 %27, 1
  store i64 %28, ptr %22, align 8, !tbaa !74
  %29 = icmp eq i32 %26, 0
  br i1 %29, label %.thread, label %30

30:                                               ; preds = %23
  %31 = icmp slt i32 %26, 0
  br i1 %31, label %arkLs_AccessARKODELMem.exit.thread, label %32

32:                                               ; preds = %30
  %33 = fmul double %.02544, 2.500000e-01
  %34 = add nuw nsw i32 %.02345, 1
  %exitcond.not = icmp eq i32 %34, 3
  br i1 %exitcond.not, label %arkLs_AccessARKODELMem.exit.thread, label %23

.thread:                                          ; preds = %23
  %35 = fdiv double 1.000000e+00, %.02544
  %36 = fneg double %35
  tail call void @N_VLinearSum(double noundef %35, ptr noundef %1, double noundef %36, ptr noundef %4, ptr noundef %1) #13
  br label %arkLs_AccessARKODELMem.exit.thread

arkLs_AccessARKODELMem.exit.thread:               ; preds = %30, %32, %15, %9, %.thread
  %.024 = phi i32 [ 0, %.thread ], [ -2, %15 ], [ -1, %9 ], [ 1, %32 ], [ -1, %30 ]
  ret i32 %.024
}